target datalayout = "e-m:e-p270:32:32-p271:32:32-p272:64:64-i64:64-i128:128-f80:128-n8:16:32:64-S128"
target triple = "x86_64-pc-linux-gnu"

@hf_ansi_a_reserved_bits_8_80 = internal global i32 0, align 4
@hf_ansi_a_re_res_prio_incl = internal global i32 0, align 4
@hf_ansi_a_re_res_forward = internal global i32 0, align 4
@hf_ansi_a_re_res_reverse = internal global i32 0, align 4
@hf_ansi_a_re_res_alloc = internal global i32 0, align 4
@hf_ansi_a_re_res_avail = internal global i32 0, align 4

; Function Attrs: null_pointer_is_valid sspstrong uwtable
define internal zeroext i8 @elem_re_res(ptr noundef %0, ptr noundef %1, ptr noundef %2, i32 noundef %3, i32 noundef %4, ptr noundef %5) #1 {
  %7 = alloca ptr, align 8
  %8 = alloca ptr, align 8
  %9 = alloca ptr, align 8
  %10 = alloca i32, align 4
  %11 = alloca i32, align 4
  %12 = alloca ptr, align 8
  %13 = alloca i32, align 4
  store ptr %0, ptr %7, align 8
  store ptr %1, ptr %8, align 8
  store ptr %2, ptr %9, align 8
  store i32 %3, ptr %10, align 4
  store i32 %4, ptr %11, align 4
  store ptr %5, ptr %12, align 8
  call void @llvm.lifetime.start.p0(i64 4, ptr %13) #8
  %14 = load i32, ptr %10, align 4
  store i32 %14, ptr %13, align 4
  %15 = load ptr, ptr %9, align 8
  %16 = load i32, ptr @hf_ansi_a_reserved_bits_8_80, align 4
  %17 = load ptr, ptr %7, align 8
  %18 = load i32, ptr %13, align 4
  %19 = call ptr @proto_tree_add_item(ptr noundef %15, i32 noundef %16, ptr noundef %17, i32 noundef %18, i32 noundef 1, i32 noundef 0)
  %20 = load ptr, ptr %9, align 8
  %21 = load i32, ptr @hf_ansi_a_re_res_prio_incl, align 4
  %22 = load ptr, ptr %7, align 8
  %23 = load i32, ptr %13, align 4
  %24 = call ptr @proto_tree_add_item(ptr noundef %20, i32 noundef %21, ptr noundef %22, i32 noundef %23, i32 noundef 1, i32 noundef 0)
  %25 = load ptr, ptr %9, align 8
  %26 = load i32, ptr @hf_ansi_a_re_res_forward, align 4
  %27 = load ptr, ptr %7, align 8
  %28 = load i32, ptr %13, align 4
  %29 = call ptr @proto_tree_add_item(ptr noundef %25, i32 noundef %26, ptr noundef %27, i32 noundef %28, i32 noundef 1, i32 noundef 0)
  %30 = load ptr, ptr %9, align 8
  %31 = load i32, ptr @hf_ansi_a_re_res_reverse, align 4
  %32 = load ptr, ptr %7, align 8
  %33 = load i32, ptr %13, align 4
  %34 = call ptr @proto_tree_add_item(ptr noundef %30, i32 noundef %31, ptr noundef %32, i32 noundef %33, i32 noundef 1, i32 noundef 0)
  %35 = load ptr, ptr %9, align 8
  %36 = load i32, ptr @hf_ansi_a_re_res_alloc, align 4
  %37 = load ptr, ptr %7, align 8
  %38 = load i32, ptr %13, align 4
  %39 = call ptr @proto_tree_add_item(ptr noundef %35, i32 noundef %36, ptr noundef %37, i32 noundef %38, i32 noundef 1, i32 noundef 0)
  %40 = load ptr, ptr %9, align 8
  %41 = load i32, ptr @hf_ansi_a_re_res_avail, align 4
  %42 = load ptr, ptr %7, align 8
  %43 = load i32, ptr %13, align 4
  %44 = call ptr @proto_tree_add_item(ptr noundef %40, i32 noundef %41, ptr noundef %42, i32 noundef %43, i32 noundef 1, i32 noundef 0)
  %45 = load i32, ptr %13, align 4
  %46 = add i32 %45, 1
  store i32 %46, ptr %13, align 4
  %47 = load i32, ptr %13, align 4
  %48 = load i32, ptr %10, align 4
  %49 = sub i32 %47, %48
  %50 = trunc i32 %49 to i8
  call void @llvm.lifetime.end.p0(i64 4, ptr %13) #8
  ret i8 %50
}